target datalayout = "e-m:e-p270:32:32-p271:32:32-p272:64:64-i64:64-i128:128-f80:128-n8:16:32:64-S128"
target triple = "x86_64-pc-linux-gnu"

%"class.std::__cxx11::basic_string" = type { %"struct.std::__cxx11::basic_string<char>::_Alloc_hider", i64, %union.anon }
%"struct.std::__cxx11::basic_string<char>::_Alloc_hider" = type { ptr }
%union.anon = type { i64, [8 x i8] }
%"class.testing::internal::Mutex" = type { %"class.testing::internal::MutexBase" }
%"class.testing::internal::MutexBase" = type { %union.pthread_mutex_t, i8, i64 }
%union.pthread_mutex_t = type { %struct.__pthread_mutex_s }
%struct.__pthread_mutex_s = type { i32, i32, i32, i32, i32, i16, i16, %struct.__pthread_internal_list }
%struct.__pthread_internal_list = type { ptr, ptr }
%"class.std::vector.31" = type { %"struct.std::_Vector_base.32" }
%"struct.std::_Vector_base.32" = type { %"struct.std::_Vector_base<int, std::allocator<int>>::_Vector_impl" }
%"struct.std::_Vector_base<int, std::allocator<int>>::_Vector_impl" = type { %"struct.std::_Vector_base<int, std::allocator<int>>::_Vector_impl_data" }
%"struct.std::_Vector_base<int, std::allocator<int>>::_Vector_impl_data" = type { ptr, ptr, ptr }
%"class.testing::TestResult" = type { %"class.testing::internal::Mutex", %"class.std::vector.62", %"class.std::vector.67", i32, i64, i64 }
%"class.std::vector.62" = type { %"struct.std::_Vector_base.63" }
%"struct.std::_Vector_base.63" = type { %"struct.std::_Vector_base<testing::TestPartResult, std::allocator<testing::TestPartResult>>::_Vector_impl" }
%"struct.std::_Vector_base<testing::TestPartResult, std::allocator<testing::TestPartResult>>::_Vector_impl" = type { %"struct.std::_Vector_base<testing::TestPartResult, std::allocator<testing::TestPartResult>>::_Vector_impl_data" }
%"struct.std::_Vector_base<testing::TestPartResult, std::allocator<testing::TestPartResult>>::_Vector_impl_data" = type { ptr, ptr, ptr }
%"class.std::vector.67" = type { %"struct.std::_Vector_base.68" }
%"struct.std::_Vector_base.68" = type { %"struct.std::_Vector_base<testing::TestProperty, std::allocator<testing::TestProperty>>::_Vector_impl" }
%"struct.std::_Vector_base<testing::TestProperty, std::allocator<testing::TestProperty>>::_Vector_impl" = type { %"struct.std::_Vector_base<testing::TestProperty, std::allocator<testing::TestProperty>>::_Vector_impl_data" }
%"struct.std::_Vector_base<testing::TestProperty, std::allocator<testing::TestProperty>>::_Vector_impl_data" = type { ptr, ptr, ptr }
%"class.std::unique_ptr.97" = type { %"struct.std::__uniq_ptr_data.98" }
%"struct.std::__uniq_ptr_data.98" = type { %"class.std::__uniq_ptr_impl.99" }
%"class.std::__uniq_ptr_impl.99" = type { %"class.std::tuple.100" }
%"class.std::tuple.100" = type { %"struct.std::_Tuple_impl.101" }
%"struct.std::_Tuple_impl.101" = type { %"struct.std::_Head_base.104" }
%"struct.std::_Head_base.104" = type { ptr }
%"class.testing::TestSuite" = type { ptr, %"class.std::__cxx11::basic_string", %"class.std::unique_ptr.97", %"class.std::vector.213", %"class.std::vector.31", ptr, ptr, i8, i64, i64, %"class.testing::TestResult" }
%"class.std::vector.213" = type { %"struct.std::_Vector_base.214" }
%"struct.std::_Vector_base.214" = type { %"struct.std::_Vector_base<testing::TestInfo *, std::allocator<testing::TestInfo *>>::_Vector_impl" }
%"struct.std::_Vector_base<testing::TestInfo *, std::allocator<testing::TestInfo *>>::_Vector_impl" = type { %"struct.std::_Vector_base<testing::TestInfo *, std::allocator<testing::TestInfo *>>::_Vector_impl_data" }
%"struct.std::_Vector_base<testing::TestInfo *, std::allocator<testing::TestInfo *>>::_Vector_impl_data" = type { ptr, ptr, ptr }

; Function Attrs: mustprogress nounwind uwtable
define linkonce_odr dso_local noundef i64 @_ZNKSt6vectorIiSaIiEE4sizeEv(ptr noundef nonnull align 8 dereferenceable(24) %0) #7 comdat align 2 {
  %2 = alloca ptr, align 8
  store ptr %0, ptr %2, align 8, !tbaa !729
  %3 = load ptr, ptr %2, align 8
  %4 = getelementptr inbounds nuw %"struct.std::_Vector_base.32", ptr %3, i32 0, i32 0
  %5 = getelementptr inbounds nuw %"struct.std::_Vector_base<int, std::allocator<int>>::_Vector_impl_data", ptr %4, i32 0, i32 1
  %6 = load ptr, ptr %5, align 8, !tbaa !732
  %7 = getelementptr inbounds nuw %"struct.std::_Vector_base.32", ptr %3, i32 0, i32 0
  %8 = getelementptr inbounds nuw %"struct.std::_Vector_base<int, std::allocator<int>>::_Vector_impl_data", ptr %7, i32 0, i32 0
  %9 = load ptr, ptr %8, align 8, !tbaa !731
  %10 = ptrtoint ptr %6 to i64
  %11 = ptrtoint ptr %9 to i64
  %12 = sub i64 %10, %11
  %13 = sdiv exact i64 %12, 4
  ret i64 %13
}

; Function Attrs: inlinehint mustprogress uwtable
define linkonce_odr dso_local void @_ZN7testing8internal7ShuffleIiEEvPNS0_6RandomEPSt6vectorIT_SaIS5_EE(ptr noundef %0, ptr noundef %1) #11 comdat {
  %3 = alloca ptr, align 8
  %4 = alloca ptr, align 8
  store ptr %0, ptr %3, align 8, !tbaa !442
  store ptr %1, ptr %4, align 8, !tbaa !729
  %5 = load ptr, ptr %3, align 8, !tbaa !442
  %6 = load ptr, ptr %4, align 8, !tbaa !729
  %7 = call noundef i64 @_ZNKSt6vectorIiSaIiEE4sizeEv(ptr noundef nonnull align 8 dereferenceable(24) %6) #3
  %8 = trunc i64 %7 to i32
  %9 = load ptr, ptr %4, align 8, !tbaa !729
  call void @_ZN7testing8internal12ShuffleRangeIiEEvPNS0_6RandomEiiPSt6vectorIT_SaIS5_EE(ptr noundef %5, i32 noundef 0, i32 noundef %8, ptr noundef %9)
  ret void
}

; Function Attrs: mustprogress uwtable
define dso_local void @_ZN7testing9TestSuite12ShuffleTestsEPNS_8internal6RandomE(ptr noundef nonnull align 8 dereferenceable(264) %0, ptr noundef %1) #4 align 2 {
  %3 = alloca ptr, align 8
  %4 = alloca ptr, align 8
  store ptr %0, ptr %3, align 8, !tbaa !523
  store ptr %1, ptr %4, align 8, !tbaa !442
  %5 = load ptr, ptr %3, align 8
  %6 = load ptr, ptr %4, align 8, !tbaa !442
  %7 = getelementptr inbounds nuw %"class.testing::TestSuite", ptr %5, i32 0, i32 4
  call void @_ZN7testing8internal7ShuffleIiEEvPNS0_6RandomEPSt6vectorIT_SaIS5_EE(ptr noundef %6, ptr noundef %7)
  ret void
}